; Function Attrs: mustprogress nounwind uwtable
define void @_ZN5boost6locale8ios_infoD2Ev(ptr noundef nonnull align 8 dereferenceable(56) %0) unnamed_addr #2 align 2 personality ptr @__gxx_personality_v0 {
  %2 = getelementptr inbounds nuw i8, ptr %0, i64 48
  %3 = load ptr, ptr %2, align 8, !tbaa !21
  %.not.i.i = icmp eq ptr %3, null
  br i1 %.not.i.i, label %_ZN5boost6locale6detail10any_stringD2Ev.exit, label %_ZNKSt14default_deleteIKN5boost6locale6detail10any_string4baseEEclEPS5_.exit.i.i

_ZNKSt14default_deleteIKN5boost6locale6detail10any_string4baseEEclEPS5_.exit.i.i: ; preds = %1
  %4 = load ptr, ptr %3, align 8, !tbaa !22
  %5 = getelementptr inbounds i8, ptr %4, i64 8
  %6 = load ptr, ptr %5, align 8
  tail call void %6(ptr noundef nonnull align 8 dereferenceable(8) %3) #15
  br label %_ZN5boost6locale6detail10any_stringD2Ev.exit

_ZN5boost6locale6detail10any_stringD2Ev.exit:     ; preds = %1, %_ZNKSt14default_deleteIKN5boost6locale6detail10any_string4baseEEclEPS5_.exit.i.i
  store ptr null, ptr %2, align 8, !tbaa !21
  %7 = getelementptr inbounds nuw i8, ptr %0, i64 16
  %8 = load ptr, ptr %7, align 8, !tbaa !24
  %9 = getelementptr inbounds nuw i8, ptr %0, i64 32
  %10 = icmp eq ptr %8, %9
  br i1 %10, label %_ZNKSt7__cxx1112basic_stringIcSt11char_traitsIcESaIcEE11_M_is_localEv.exit.thread.i.i, label %_ZNKSt7__cxx1112basic_stringIcSt11char_traitsIcESaIcEE11_M_is_localEv.exit.i.i

_ZNKSt7__cxx1112basic_stringIcSt11char_traitsIcESaIcEE11_M_is_localEv.exit.thread.i.i: ; preds = %_ZN5boost6locale6detail10any_stringD2Ev.exit
  %11 = getelementptr inbounds nuw i8, ptr %0, i64 24
  %12 = load i64, ptr %11, align 8, !tbaa !25
  %13 = icmp ult i64 %12, 16
  tail call void @llvm.assume(i1 %13)
  br label %_ZNSt7__cxx1112basic_stringIcSt11char_traitsIcESaIcEED2Ev.exit

_ZNKSt7__cxx1112basic_stringIcSt11char_traitsIcESaIcEE11_M_is_localEv.exit.i.i: ; preds = %_ZN5boost6locale6detail10any_stringD2Ev.exit
  %14 = load i64, ptr %9, align 8, !tbaa !26
  %15 = add i64 %14, 1
  tail call void @_ZdlPvm(ptr noundef %8, i64 noundef %15) #16
  br label %_ZNSt7__cxx1112basic_stringIcSt11char_traitsIcESaIcEED2Ev.exit

_ZNSt7__cxx1112basic_stringIcSt11char_traitsIcESaIcEED2Ev.exit: ; preds = %_ZNKSt7__cxx1112basic_stringIcSt11char_traitsIcESaIcEE11_M_is_localEv.exit.thread.i.i, %_ZNKSt7__cxx1112basic_stringIcSt11char_traitsIcESaIcEE11_M_is_localEv.exit.i.i
  ret void
}